; Function Attrs: nounwind uwtable
define internal fastcc noalias nonnull ptr @_init_l_commandDeclare__bitwise__int__theorems_______closed__14() unnamed_addr #0 {
  %1 = load ptr, ptr @l_commandDeclare__bitwise__int__theorems_______closed__4, align 8, !tbaa !4
  %2 = load ptr, ptr @l_commandDeclare__bitwise__int__theorems_______closed__10, align 8, !tbaa !4
  %3 = load ptr, ptr @l_commandDeclare__bitwise__int__theorems_______closed__13, align 8, !tbaa !4
  tail call void @lean_inc_heartbeat() #5
  %4 = tail call noalias ptr @mi_malloc_small(i64 noundef 32) #5
  %5 = icmp eq ptr %4, null
  br i1 %5, label %6, label %lean_alloc_ctor.exit

6:                                                ; preds = %0
  tail call void @lean_internal_panic_out_of_memory() #6
  unreachable

lean_alloc_ctor.exit:                             ; preds = %0
  %7 = getelementptr inbounds nuw i8, ptr %4, i64 4
  store i32 1, ptr %4, align 4, !tbaa !8
  store i32 33751072, ptr %7, align 4
  %8 = getelementptr inbounds nuw i8, ptr %4, i64 8
  store ptr %1, ptr %8, align 8, !tbaa !4
  %9 = getelementptr inbounds nuw i8, ptr %4, i64 16
  store ptr %2, ptr %9, align 8, !tbaa !4
  %10 = getelementptr inbounds nuw i8, ptr %4, i64 24
  store ptr %3, ptr %10, align 8, !tbaa !4
  ret ptr %4
}